target datalayout = "e-m:e-p270:32:32-p271:32:32-p272:64:64-i64:64-i128:128-f80:128-n8:16:32:64-S128"
target triple = "x86_64-unknown-linux-gnu"

%struct.net = type { %struct.refcount_struct, %struct.spinlock, %struct.atomic_t, i32, i32, %struct.spinlock, %struct.atomic_t, %struct.list_head, %struct.list_head, %struct.llist_node, ptr, ptr, ptr, %struct.idr, %struct.ns_common, %struct.ref_tracker_dir, %struct.ref_tracker_dir, %struct.list_head, ptr, ptr, %struct.ctl_table_set, ptr, ptr, ptr, ptr, ptr, %struct.xarray, %struct.raw_notifier_head, i32, ptr, %struct.list_head, %struct.netns_core, %struct.netns_mib, %struct.netns_packet, %struct.netns_unix, %struct.netns_nexthop, [48 x i8], %struct.netns_ipv4, %struct.netns_ipv6, %struct.netns_nf, %struct.netns_ct, ptr, %struct.netns_bpf, [16 x i8], %struct.netns_xfrm, i64, ptr, [48 x i8] }
%struct.refcount_struct = type { %struct.atomic_t }
%struct.spinlock = type { %union.anon }
%union.anon = type { %struct.raw_spinlock }
%struct.raw_spinlock = type { %struct.qspinlock }
%struct.qspinlock = type { %union.anon.0 }
%union.anon.0 = type { %struct.atomic_t }
%struct.atomic_t = type { i32 }
%struct.llist_node = type { ptr }
%struct.idr = type { %struct.xarray, i32, i32 }
%struct.ns_common = type { %struct.atomic64_t, ptr, i32, %struct.refcount_struct }
%struct.atomic64_t = type { i64 }
%struct.ref_tracker_dir = type {}
%struct.ctl_table_set = type { ptr, %struct.ctl_dir }
%struct.ctl_dir = type { %struct.ctl_table_header, %struct.rb_root }
%struct.ctl_table_header = type { %union.anon.2, ptr, ptr, ptr, ptr, ptr, ptr, %struct.hlist_head }
%union.anon.2 = type { %struct.anon.3 }
%struct.anon.3 = type { ptr, i32, i32, i32, i32 }
%struct.hlist_head = type { ptr }
%struct.rb_root = type { ptr }
%struct.xarray = type { %struct.spinlock, i32, ptr }
%struct.raw_notifier_head = type { ptr }
%struct.list_head = type { ptr, ptr }
%struct.netns_core = type { ptr, i32, i32, i8, ptr, ptr }
%struct.netns_mib = type { ptr, ptr, ptr, ptr, ptr, ptr, ptr, ptr, ptr, ptr, ptr, ptr, ptr }
%struct.netns_packet = type { %struct.mutex, %struct.hlist_head }
%struct.mutex = type { %struct.atomic64_t, %struct.raw_spinlock, %struct.optimistic_spin_queue, %struct.list_head }
%struct.optimistic_spin_queue = type { %struct.atomic_t }
%struct.netns_unix = type { %struct.unix_table, i32, ptr }
%struct.unix_table = type { ptr, ptr }
%struct.netns_nexthop = type { %struct.rb_root, ptr, i32, i32, %struct.blocking_notifier_head }
%struct.blocking_notifier_head = type { %struct.rw_semaphore, ptr }
%struct.rw_semaphore = type { %struct.atomic64_t, %struct.atomic64_t, %struct.optimistic_spin_queue, %struct.raw_spinlock, %struct.list_head }
%struct.netns_ipv4 = type { [0 x i8], i8, i8, i8, i8, i32, i32, i32, i32, [3 x i32], i8, [0 x i8], [0 x i8], i8, [0 x i8], [0 x i8], i8, i8, i32, [3 x i32], [0 x i8], [12 x i8], %struct.inet_timewait_death_row, ptr, ptr, ptr, ptr, ptr, ptr, ptr, ptr, ptr, %struct.mutex, ptr, ptr, ptr, i32, i8, i8, i8, i8, ptr, ptr, ptr, ptr, ptr, i8, i8, i8, i8, i8, i32, i32, i32, i32, i32, %struct.local_ports, i8, i8, i8, i8, i8, i8, i8, i8, i8, i8, i8, i8, i8, i32, i32, i32, i32, i32, i32, i8, i8, i8, i8, i8, i8, i8, i8, i8, i8, i8, i8, i32, i8, i8, i8, i8, i8, i8, i8, i8, i8, i8, i8, i32, i32, i8, i8, i8, i8, i8, i8, i32, i8, i8, i32, i32, i32, i32, i64, i64, i32, i32, ptr, ptr, i32, %struct.atomic_t, i64, i32, i32, i8, i8, i8, i8, i32, i32, i32, i8, i8, i8, i32, i32, i32, %struct.ping_group_range, %struct.atomic_t, i32, ptr, i32, ptr, i32, i8, i8, ptr, i32, ptr, i32, %struct.atomic_t, %struct.siphash_key_t, [56 x i8] }
%struct.inet_timewait_death_row = type { %struct.refcount_struct, [60 x i8], ptr, i32, [52 x i8] }
%struct.local_ports = type { i32, i8 }
%struct.ping_group_range = type { %struct.seqlock_t, [2 x %struct.kgid_t] }
%struct.seqlock_t = type { %struct.seqcount_spinlock, %struct.spinlock }
%struct.seqcount_spinlock = type { %struct.seqcount }
%struct.seqcount = type { i32 }
%struct.kgid_t = type { i32 }
%struct.siphash_key_t = type { [2 x i64] }
%struct.netns_ipv6 = type { %struct.dst_ops, %struct.netns_sysctl_ipv6, ptr, ptr, ptr, ptr, ptr, ptr, ptr, %struct.timer_list, ptr, ptr, %struct.list_head, %struct.rwlock_t, %struct.spinlock, %struct.atomic_t, i64, i8, ptr, ptr, ptr, ptr, ptr, %struct.spinlock, %struct.delayed_work, %struct.atomic_t, %struct.atomic_t, ptr, ptr, ptr, i32, %struct.anon.6, ptr, [32 x i8] }
%struct.dst_ops = type { i16, i32, ptr, ptr, ptr, ptr, ptr, ptr, ptr, ptr, ptr, ptr, ptr, ptr, ptr, ptr, ptr, %struct.percpu_counter, [24 x i8] }
%struct.percpu_counter = type { %struct.raw_spinlock, i64, %struct.list_head, ptr }
%struct.netns_sysctl_ipv6 = type { ptr, ptr, ptr, ptr, ptr, i32, i32, i32, i32, i32, i32, i32, i32, i32, i8, i8, i8, i8, i32, i8, i8, i8, [4 x i64], ptr, i8, i8, i8, i8, i32, i32, i32, i32, i32, i32, i32, i32, i32, i64, i8, i8, i8 }
%struct.timer_list = type { %struct.hlist_node, i64, ptr, i32 }
%struct.hlist_node = type { ptr, ptr }
%struct.rwlock_t = type { %struct.qrwlock }
%struct.qrwlock = type { %union.anon.4, %struct.qspinlock }
%union.anon.4 = type { %struct.atomic_t }
%struct.delayed_work = type { %struct.work_struct, %struct.timer_list, ptr, i32 }
%struct.work_struct = type { %struct.atomic64_t, %struct.list_head, ptr }
%struct.anon.6 = type { %struct.hlist_head, %struct.spinlock, i32 }
%struct.netns_nf = type { ptr, [11 x ptr], ptr, [5 x ptr], [5 x ptr], i32, i32 }
%struct.netns_ct = type { i8, i8, i8, i8, i8, ptr, ptr, %struct.nf_ip_net }
%struct.nf_ip_net = type { %struct.nf_generic_net, %struct.nf_tcp_net, %struct.nf_udp_net, %struct.nf_icmp_net, %struct.nf_icmp_net }
%struct.nf_generic_net = type { i32 }
%struct.nf_tcp_net = type { [14 x i32], i8, i8, i8, i8 }
%struct.nf_udp_net = type { [2 x i32] }
%struct.nf_icmp_net = type { i32 }
%struct.netns_bpf = type { [2 x ptr], [2 x ptr], [2 x %struct.list_head] }
%struct.netns_xfrm = type { %struct.list_head, ptr, ptr, ptr, ptr, i32, i32, %struct.work_struct, %struct.list_head, ptr, i32, i32, [3 x %struct.hlist_head], [3 x %struct.xfrm_policy_hash], [6 x i32], %struct.work_struct, %struct.xfrm_policy_hthresh, %struct.list_head, ptr, ptr, i32, i32, i32, i32, [3 x i8], ptr, [24 x i8], %struct.dst_ops, %struct.dst_ops, %struct.spinlock, %struct.seqcount_spinlock, %struct.seqcount_spinlock, %struct.spinlock, %struct.mutex, [16 x i8] }
%struct.xfrm_policy_hash = type { ptr, i32, i8, i8, i8, i8 }
%struct.xfrm_policy_hthresh = type { %struct.work_struct, %struct.seqlock_t, i8, i8, i8, i8 }
%struct.ctl_table = type { ptr, ptr, i32, i16, i32, ptr, ptr, ptr, ptr }

@init_net = external dso_local global %struct.net, align 64
@unix_table = internal global [2 x %struct.ctl_table] [%struct.ctl_table { ptr @.str.1, ptr getelementptr (i8, ptr @init_net, i64 568), i32 4, i16 420, i32 0, ptr @proc_dointvec, ptr null, ptr null, ptr null }, %struct.ctl_table zeroinitializer], align 16
@.str = private unnamed_addr constant [9 x i8] c"net/unix\00", align 1
@.str.1 = private unnamed_addr constant [15 x i8] c"max_dgram_qlen\00", align 1

; Function Attrs: fn_ret_thunk_extern nounwind null_pointer_is_valid
define dso_local i32 @unix_sysctl_register(ptr noundef %0) local_unnamed_addr #0 align 16 {
  %2 = icmp eq ptr %0, @init_net
  br i1 %2, label %9, label %3

3:                                                ; preds = %1
  %4 = tail call dereferenceable_or_null(128) ptr @kmemdup(ptr noundef nonnull @unix_table, i64 noundef 128, i32 noundef 3264) #3
  %5 = icmp eq ptr %4, null
  br i1 %5, label %17, label %6

6:                                                ; preds = %3
  %7 = getelementptr inbounds i8, ptr %0, i64 568
  %8 = getelementptr inbounds i8, ptr %4, i64 8
  store ptr %7, ptr %8, align 8
  br label %9

9:                                                ; preds = %6, %1
  %10 = phi ptr [ %4, %6 ], [ @unix_table, %1 ]
  %11 = tail call ptr @register_net_sysctl_sz(ptr noundef %0, ptr noundef nonnull @.str, ptr noundef nonnull %10, i64 noundef 2) #4
  %12 = getelementptr inbounds i8, ptr %0, i64 576
  store ptr %11, ptr %12, align 8
  %13 = icmp ne ptr %11, null
  %14 = or i1 %2, %13
  %15 = select i1 %13, i32 0, i32 -12
  br i1 %14, label %17, label %16

16:                                               ; preds = %9
  tail call void @kfree(ptr noundef nonnull %10) #4
  br label %17

17:                                               ; preds = %16, %9, %3
  %18 = phi i32 [ %15, %9 ], [ -12, %16 ], [ -12, %3 ]
  ret i32 %18
}

; Function Attrs: null_pointer_is_valid allocsize(1)
declare dso_local ptr @kmemdup(ptr noundef, i64 noundef, i32 noundef) local_unnamed_addr #1

; Function Attrs: null_pointer_is_valid
declare dso_local ptr @register_net_sysctl_sz(ptr noundef, ptr noundef, ptr noundef, i64 noundef) local_unnamed_addr #2

; Function Attrs: null_pointer_is_valid
declare dso_local void @kfree(ptr noundef) local_unnamed_addr #2

; Function Attrs: fn_ret_thunk_extern nounwind null_pointer_is_valid
define dso_local void @unix_sysctl_unregister(ptr noundef readonly %0) local_unnamed_addr #0 align 16 {
  %2 = getelementptr inbounds i8, ptr %0, i64 576
  %3 = load ptr, ptr %2, align 8
  %4 = getelementptr inbounds i8, ptr %3, i64 32
  %5 = load ptr, ptr %4, align 8
  tail call void @unregister_net_sysctl_table(ptr noundef %3) #4
  %6 = icmp eq ptr %0, @init_net
  br i1 %6, label %8, label %7

7:                                                ; preds = %1
  tail call void @kfree(ptr noundef %5) #4
  br label %8

8:                                                ; preds = %7, %1
  ret void
}

; Function Attrs: null_pointer_is_valid
declare dso_local void @unregister_net_sysctl_table(ptr noundef) local_unnamed_addr #2

; Function Attrs: null_pointer_is_valid
declare dso_local i32 @proc_dointvec(ptr noundef, i32 noundef, ptr noundef, ptr noundef, ptr noundef) #2


!llvm.module.flags = !{!0, !1, !2, !3, !4}

!0 = !{i32 1, !"wchar_size", i32 2}
!1 = !{i32 8, !"cf-protection-branch", i32 1}
!2 = !{i32 4, !"function_return_thunk_extern", i32 1}
!3 = !{i32 4, !"indirect_branch_cs_prefix", i32 1}
!4 = !{i32 4, !"SkipRaxSetup", i32 1}
